Certificate:
    Data:
        Version: 3 (0x2)
        Serial Number: 2 (0x2)
        Signature Algorithm: sha256WithRSAEncryption
        Issuer: C=KG, ST=NA, L=BISHKEK, O=OpenVPN-TEST/emailAddress=me@myhost.mydomain
        Validity
            Not Before: Nov 16 13:14:58 2023 GMT
            Not After : Nov 13 13:14:58 2033 GMT
        Subject: C=KG, ST=NA, O=OpenVPN-TEST, CN=Test-Client/emailAddress=me@myhost.mydomain
        Subject Public Key Info:
            Public Key Algorithm: rsaEncryption
                Public-Key: (2048 bit)
                Modulus:
                    00:d5:11:c4:70:8b:bc:bd:65:40:54:08:d0:77:89:
                    93:84:0e:3c:87:01:1a:d7:7f:1f:de:7a:ee:38:5b:
                    ce:ef:ec:a0:b2:9d:86:68:6f:20:bd:05:72:e5:54:
                    51:0f:9b:01:3e:03:c0:e3:b0:e7:3c:5d:0a:5b:0f:
                    be:1f:39:a2:e7:fb:aa:a8:25:b8:c6:9b:f6:83:00:
                    55:fe:90:ba:80:d1:f6:29:a4:61:f4:bd:09:47:58:
                    57:51:a1:34:e3:84:8d:fd:84:8a:36:99:71:de:5e:
                    79:83:42:f6:8f:bb:73:7e:75:03:e6:7c:16:54:4b:
                    2d:01:29:5e:14:a9:7c:ad:d7:1e:b7:d0:57:be:bd:
                    3e:ae:9d:f7:4c:c8:eb:70:96:6c:ed:4b:a6:fd:35:
                    45:78:2d:68:6d:e6:78:0c:f0:99:47:1f:9c:61:c9:
                    3a:65:84:7b:62:8f:58:d9:70:cb:56:a4:cb:5c:41:
                    b3:92:6d:fc:d6:1e:44:90:cf:19:e4:bb:71:51:b1:
                    db:49:48:5f:a6:0b:33:eb:2f:2e:ab:4c:b4:ef:15:
                    71:48:e9:4d:3e:dc:02:08:1e:1d:db:e5:f7:9b:48:
                    36:b7:fc:18:30:ab:f3:7a:8b:d3:01:64:23:e5:cc:
                    a7:52:82:69:67:81:05:11:0e:cf:da:50:4b:7e:24:
                    33:07
                Exponent: 65537 (0x10001)
        X509v3 extensions:
            X509v3 Basic Constraints: 
                CA:FALSE
            X509v3 Subject Key Identifier: 
                2F:5D:3B:78:A2:1B:C8:23:CA:C0:A1:9E:34:56:C2:01:2D:C1:37:BC
            X509v3 Authority Key Identifier: 
                keyid:ED:C4:E0:C9:84:CA:A1:F9:53:0D:AF:69:BF:0F:67:37:DF:CE:CA:0A
                DirName:/C=KG/ST=NA/L=BISHKEK/O=OpenVPN-TEST/emailAddress=me@myhost.mydomain
                serial:5A:D2:BD:72:62:21:ED:67:C3:43:46:B0:70:2E:C3:30:4F:6B:1C:64
    Signature Algorithm: sha256WithRSAEncryption
    Signature Value:
        36:6d:6f:53:85:5f:c6:02:fc:24:91:34:b6:8f:21:2e:a9:f5:
        87:20:ad:d2:2a:ab:66:06:c5:fa:5c:7a:2b:07:8b:2b:4e:e6:
        ea:20:00:6d:89:94:a9:12:86:2f:81:48:f5:0d:9e:89:d9:3b:
        83:79:ce:63:38:36:eb:f0:4d:23:3d:89:9d:35:b8:0c:34:3b:
        01:84:16:70:c5:62:70:e4:a0:d0:d6:fe:bc:01:a3:f4:79:49:
        2c:1e:2d:73:01:1d:64:06:c7:80:ac:ca:c3:19:f1:58:5b:bb:
        dd:69:e0:ea:a9:21:7c:96:e5:61:cb:3e:91:64:08:31:94:bb:
        7c:e5:da:fc:d6:26:24:51:e2:89:d3:5a:88:84:1a:44:a7:08:
        7f:bb:2c:00:20:d0:91:f0:9d:85:20:34:ed:98:72:f0:b2:c0:
        03:85:e4:9b:cf:9d:31:6e:a4:3f:33:66:4b:d0:c8:0c:41:f3:
        31:40:22:35:c9:e8:f9:55:50:21:dd:cf:ff:82:dc:72:39:d9:
        16:68:a8:36:36:19:68:cb:9a:3a:2f:9d:0e:59:6e:83:c7:c5:
        53:5e:4e:d8:cf:29:aa:0e:15:b2:dd:a2:d2:25:7c:9f:85:74:
        36:28:8b:19:7d:c3:be:3c:77:a2:d0:35:3b:f6:e9:18:1a:d6:
        98:05:25:23:32:88:14:d4:66:b0:fe:06:7a:60:77:70:01:b1:
        c0:b6:a4:53:8a:76:81:17:80:40:5b:70:db:cb:42:b9:bb:f1:
        80:ac:37:01:ea:dc:ae:eb:f4:25:b6:bf:dc:40:da:11:e7:b0:
        27:ee:ce:2a:8d:bd:75:07:62:7b:cd:e9:0f:38:24:6f:4b:6b:
        95:1d:57:06:b8:f6:fc:70:b7:b0:41:5e:06:1f:93:7e:42:fb:
        ba:9b:9d:5c:c9:cd:da:79:cd:f7:13:1c:be:e6:3b:40:33:a3:
        9a:88:a7:4b:0e:8d:c3:ed:50:44:ad:cd:6e:73:29:83:f4:a6:
        ea:6e:81:97:db:89:c7:79:31:29:91:04:1a:d4:11:a4:2c:e3:
        45:02:f5:e0:71:11:29:46:d8:5f:d7:40:14:01:7c:72:0d:eb:
        a9:9d:d1:09:98:dd:92:aa:87:0d:0c:71:cd:da:72:10:dd:47:
        dc:48:a5:34:41:6c:a2:6f:e2:c3:10:bd:81:ef:04:58:48:72:
        56:b4:1c:08:f4:83:9b:33:d3:50:dd:2a:da:37:a7:29:ea:63:
        6d:84:a0:8a:3d:4a:8d:06:b8:a5:e2:98:78:82:f7:84:2e:82:
        18:44:da:12:23:8e:2e:c6:5a:5d:34:41:0d:00:ce:00:97:55:
        16:50:0d:8d:ea:2d:95:89
-----BEGIN CERTIFICATE-----
MIIFHzCCAwegAwIBAgIBAjANBgkqhkiG9w0BAQsFADBmMQswCQYDVQQGEwJLRzEL
MAkGA1UECAwCTkExEDAOBgNVBAcMB0JJU0hLRUsxFTATBgNVBAoMDE9wZW5WUE4t
VEVTVDEhMB8GCSqGSIb3DQEJARYSbWVAbXlob3N0Lm15ZG9tYWluMB4XDTIzMTEx
NjEzMTQ1OFoXDTMzMTExMzEzMTQ1OFowajELMAkGA1UEBhMCS0cxCzAJBgNVBAgM
Ak5BMRUwEwYDVQQKDAxPcGVuVlBOLVRFU1QxFDASBgNVBAMMC1Rlc3QtQ2xpZW50
MSEwHwYJKoZIhvcNAQkBFhJtZUBteWhvc3QubXlkb21haW4wggEiMA0GCSqGSIb3
DQEBAQUAA4IBDwAwggEKAoIBAQDVEcRwi7y9ZUBUCNB3iZOEDjyHARrXfx/eeu44
W87v7KCynYZobyC9BXLlVFEPmwE+A8DjsOc8XQpbD74fOaLn+6qoJbjGm/aDAFX+
kLqA0fYppGH0vQlHWFdRoTTjhI39hIo2mXHeXnmDQvaPu3N+dQPmfBZUSy0BKV4U
qXyt1x630Fe+vT6unfdMyOtwlmztS6b9NUV4LWht5ngM8JlHH5xhyTplhHtij1jZ
cMtWpMtcQbOSbfzWHkSQzxnku3FRsdtJSF+mCzPrLy6rTLTvFXFI6U0+3AIIHh3b
5febSDa3/Bgwq/N6i9MBZCPlzKdSgmlngQURDs/aUEt+JDMHAgMBAAGjgdMwgdAw
CQYDVR0TBAIwADAdBgNVHQ4EFgQUL107eKIbyCPKwKGeNFbCAS3BN7wwgaMGA1Ud
IwSBmzCBmIAU7cTgyYTKoflTDa9pvw9nN9/OygqhaqRoMGYxCzAJBgNVBAYTAktH
MQswCQYDVQQIDAJOQTEQMA4GA1UEBwwHQklTSEtFSzEVMBMGA1UECgwMT3BlblZQ
Ti1URVNUMSEwHwYJKoZIhvcNAQkBFhJtZUBteWhvc3QubXlkb21haW6CFFrSvXJi
Ie1nw0NGsHAuwzBPaxxkMA0GCSqGSIb3DQEBCwUAA4ICAQA2bW9ThV/GAvwkkTS2
jyEuqfWHIK3SKqtmBsX6XHorB4srTubqIABtiZSpEoYvgUj1DZ6J2TuDec5jODbr
8E0jPYmdNbgMNDsBhBZwxWJw5KDQ1v68AaP0eUksHi1zAR1kBseArMrDGfFYW7vd
aeDqqSF8luVhyz6RZAgxlLt85dr81iYkUeKJ01qIhBpEpwh/uywAINCR8J2FIDTt
mHLwssADheSbz50xbqQ/M2ZL0MgMQfMxQCI1yej5VVAh3c//gtxyOdkWaKg2Nhlo
y5o6L50OWW6Dx8VTXk7YzymqDhWy3aLSJXyfhXQ2KIsZfcO+PHei0DU79ukYGtaY
BSUjMogU1Gaw/gZ6YHdwAbHAtqRTinaBF4BAW3Dby0K5u/GArDcB6tyu6/Qltr/c
QNoR57An7s4qjb11B2J7zekPOCRvS2uVHVcGuPb8cLewQV4GH5N+Qvu6m51cyc3a
ec33Exy+5jtAM6OaiKdLDo3D7VBErc1ucymD9KbqboGX24nHeTEpkQQa1BGkLONF
AvXgcREpRthf10AUAXxyDeupndEJmN2SqocNDHHN2nIQ3UfcSKU0QWyib+LDEL2B
7wRYSHJWtBwI9IObM9NQ3SraN6cp6mNthKCKPUqNBril4ph4gveELoIYRNoSI44u
xlpdNEENAM4Al1UWUA2N6i2ViQ==
-----END CERTIFICATE-----
