Certificate:
    Data:
        Version: 3 (0x2)
        Serial Number: 1 (0x1)
        Signature Algorithm: sha256WithRSAEncryption
        Issuer: C=KG, ST=NA, L=BISHKEK, O=OpenVPN-TEST/emailAddress=me@myhost.mydomain
        Validity
            Not Before: Nov 16 13:14:57 2023 GMT
            Not After : Nov 13 13:14:57 2033 GMT
        Subject: C=KG, ST=NA, O=OpenVPN-TEST, CN=Test-Server/emailAddress=me@myhost.mydomain
        Subject Public Key Info:
            Public Key Algorithm: rsaEncryption
                Public-Key: (2048 bit)
                Modulus:
                    00:a4:38:ec:b1:bd:a8:a5:a8:2e:e9:12:40:7e:9d:
                    ff:ad:87:fc:9b:62:4c:b7:b7:2b:96:f4:31:d6:cd:
                    b7:70:bb:45:e8:9f:37:d9:7b:7d:bd:46:a0:d5:b7:
                    a9:58:35:75:27:43:ae:e7:6e:e0:09:f0:e2:5a:f6:
                    62:8e:0e:e5:46:7a:ab:b8:af:1a:4c:61:84:46:dc:
                    f2:72:57:59:85:74:8a:8a:36:3a:d6:0b:72:b0:8b:
                    c4:64:87:ac:4a:e0:27:ae:94:33:bf:83:89:7f:65:
                    aa:0c:cd:47:1b:e0:62:d4:7e:d4:63:dd:67:71:d4:
                    39:b4:39:98:74:95:4a:1a:20:00:ed:0c:c9:b7:9e:
                    7a:1a:1a:11:10:84:29:3a:40:46:32:b2:f2:e1:e9:
                    f9:51:89:d2:00:bd:9a:f7:5e:d9:10:0b:f0:47:96:
                    e6:83:19:0b:e7:30:b0:86:a2:6b:91:5b:e3:f0:02:
                    00:26:98:3b:6a:3c:1c:88:0c:09:a7:3d:18:40:3c:
                    27:57:f7:3e:fb:45:bf:c1:b8:23:76:e0:4c:7a:87:
                    35:5f:01:a6:3f:10:64:18:f2:87:4b:ac:dd:b0:dd:
                    03:e9:a6:ca:15:9c:b3:8f:1c:31:d2:f1:e6:dd:95:
                    50:28:f8:ab:a6:cd:38:ed:a5:5a:71:59:62:d0:4f:
                    57:67
                Exponent: 65537 (0x10001)
        X509v3 extensions:
            X509v3 Basic Constraints: 
                CA:FALSE
            Netscape Cert Type: 
                SSL Server
            Netscape Comment: 
                OpenSSL Generated Server Certificate
            X509v3 Subject Key Identifier: 
                07:47:9C:8B:A7:CC:43:5E:CE:F3:55:A6:D5:4C:37:14:D0:5D:77:DE
            X509v3 Authority Key Identifier: 
                keyid:ED:C4:E0:C9:84:CA:A1:F9:53:0D:AF:69:BF:0F:67:37:DF:CE:CA:0A
                DirName:/C=KG/ST=NA/L=BISHKEK/O=OpenVPN-TEST/emailAddress=me@myhost.mydomain
                serial:5A:D2:BD:72:62:21:ED:67:C3:43:46:B0:70:2E:C3:30:4F:6B:1C:64
            X509v3 Extended Key Usage: 
                TLS Web Server Authentication
            X509v3 Key Usage: 
                Digital Signature, Key Encipherment
    Signature Algorithm: sha256WithRSAEncryption
    Signature Value:
        16:c1:2a:51:24:fe:4b:8c:e3:3e:cd:2a:e3:2a:e2:1a:a6:43:
        b8:51:37:58:3e:6c:38:63:55:40:41:bd:d8:59:6d:44:7a:db:
        32:dd:5d:61:5a:9d:68:89:b7:e2:de:87:ba:70:32:0d:1f:39:
        b5:42:0c:28:1b:aa:55:c2:00:7f:ea:74:1d:73:3c:c0:fd:4c:
        a3:02:ab:91:92:9b:b1:0d:a7:7e:0f:b0:a4:50:0c:90:72:b0:
        1c:97:bd:d3:d0:38:5b:b2:3b:75:c3:f0:02:82:ee:cb:b0:d5:
        32:d4:44:ef:b4:c9:36:1b:96:b9:b6:c2:00:9c:01:03:ff:16:
        b8:27:19:f9:60:05:b8:63:00:87:74:4d:82:b6:46:44:80:48:
        10:78:32:45:33:87:f0:d7:ac:8b:db:98:7c:e7:d7:b4:3e:d1:
        e3:cb:e0:be:5e:a9:d3:38:51:a2:7a:65:9d:b7:80:00:9d:c5:
        fc:10:44:d2:21:56:74:b2:d3:e3:dc:89:a5:56:d6:1f:95:95:
        f0:da:2c:b1:64:d2:39:68:ac:04:8a:41:ec:55:d4:f0:5e:20:
        39:c2:3c:51:8f:04:e5:9a:f4:88:35:71:b7:fd:82:9c:f4:f3:
        d4:5e:48:cf:af:40:58:38:7e:55:27:75:f9:7c:c3:f1:39:63:
        94:0b:a7:7e:c1:26:6e:7f:09:95:35:4b:cc:9e:09:cf:24:a6:
        d3:a8:61:35:6c:0d:28:9b:89:a1:76:f3:a6:c7:10:11:a2:7e:
        90:8f:ab:2f:a3:98:74:3b:da:d5:a6:08:d5:dd:d6:18:92:51:
        9d:7a:13:14:fb:41:39:0a:8a:4d:b6:67:75:47:f2:76:28:de:
        90:a1:5c:e6:15:fc:41:44:16:d5:c2:af:c1:35:e5:2e:52:5a:
        1e:9e:f2:1e:27:8e:ea:f0:11:68:79:04:63:bb:60:44:ee:97:
        3e:bb:4e:d0:2e:b6:2e:74:8f:26:ef:14:6d:aa:8a:85:ed:84:
        c6:03:2e:21:8a:3d:2b:be:0d:6f:98:ed:4f:6b:1d:b8:4c:11:
        f8:fd:8a:2e:0f:a3:8d:02:17:7e:21:03:3e:2a:b1:2f:9f:f2:
        bc:7f:ab:f4:80:1a:94:39:14:1b:fe:46:c8:5a:1b:9f:27:4d:
        0e:4f:db:ee:ed:2f:8c:2c:3e:0b:24:e0:5e:75:69:7a:47:53:
        be:bf:d5:33:3f:71:d1:58:11:8d:3e:6b:b6:2e:f4:1c:27:f4:
        e6:97:02:ee:20:2c:7e:00:70:2a:46:cc:58:6e:e5:08:9d:19:
        ec:dc:9d:f1:0e:ba:53:f4:a0:d1:e7:0b:4d:c4:f0:80:67:98:
        f4:58:91:d7:c0:be:f3:52
-----BEGIN CERTIFICATE-----
MIIFizCCA3OgAwIBAgIBATANBgkqhkiG9w0BAQsFADBmMQswCQYDVQQGEwJLRzEL
MAkGA1UECAwCTkExEDAOBgNVBAcMB0JJU0hLRUsxFTATBgNVBAoMDE9wZW5WUE4t
VEVTVDEhMB8GCSqGSIb3DQEJARYSbWVAbXlob3N0Lm15ZG9tYWluMB4XDTIzMTEx
NjEzMTQ1N1oXDTMzMTExMzEzMTQ1N1owajELMAkGA1UEBhMCS0cxCzAJBgNVBAgM
Ak5BMRUwEwYDVQQKDAxPcGVuVlBOLVRFU1QxFDASBgNVBAMMC1Rlc3QtU2VydmVy
MSEwHwYJKoZIhvcNAQkBFhJtZUBteWhvc3QubXlkb21haW4wggEiMA0GCSqGSIb3
DQEBAQUAA4IBDwAwggEKAoIBAQCkOOyxvailqC7pEkB+nf+th/ybYky3tyuW9DHW
zbdwu0XonzfZe329RqDVt6lYNXUnQ67nbuAJ8OJa9mKODuVGequ4rxpMYYRG3PJy
V1mFdIqKNjrWC3Kwi8Rkh6xK4CeulDO/g4l/ZaoMzUcb4GLUftRj3Wdx1Dm0OZh0
lUoaIADtDMm3nnoaGhEQhCk6QEYysvLh6flRidIAvZr3XtkQC/BHluaDGQvnMLCG
omuRW+PwAgAmmDtqPByIDAmnPRhAPCdX9z77Rb/BuCN24Ex6hzVfAaY/EGQY8odL
rN2w3QPppsoVnLOPHDHS8ebdlVAo+KumzTjtpVpxWWLQT1dnAgMBAAGjggE+MIIB
OjAJBgNVHRMEAjAAMBEGCWCGSAGG+EIBAQQEAwIGQDAzBglghkgBhvhCAQ0EJhYk
T3BlblNTTCBHZW5lcmF0ZWQgU2VydmVyIENlcnRpZmljYXRlMB0GA1UdDgQWBBQH
R5yLp8xDXs7zVabVTDcU0F133jCBowYDVR0jBIGbMIGYgBTtxODJhMqh+VMNr2m/
D2c3387KCqFqpGgwZjELMAkGA1UEBhMCS0cxCzAJBgNVBAgMAk5BMRAwDgYDVQQH
DAdCSVNIS0VLMRUwEwYDVQQKDAxPcGVuVlBOLVRFU1QxITAfBgkqhkiG9w0BCQEW
Em1lQG15aG9zdC5teWRvbWFpboIUWtK9cmIh7WfDQ0awcC7DME9rHGQwEwYDVR0l
BAwwCgYIKwYBBQUHAwEwCwYDVR0PBAQDAgWgMA0GCSqGSIb3DQEBCwUAA4ICAQAW
wSpRJP5LjOM+zSrjKuIapkO4UTdYPmw4Y1VAQb3YWW1Eetsy3V1hWp1oibfi3oe6
cDINHzm1QgwoG6pVwgB/6nQdczzA/UyjAquRkpuxDad+D7CkUAyQcrAcl73T0Dhb
sjt1w/ACgu7LsNUy1ETvtMk2G5a5tsIAnAED/xa4Jxn5YAW4YwCHdE2CtkZEgEgQ
eDJFM4fw16yL25h859e0PtHjy+C+XqnTOFGiemWdt4AAncX8EETSIVZ0stPj3Iml
VtYflZXw2iyxZNI5aKwEikHsVdTwXiA5wjxRjwTlmvSINXG3/YKc9PPUXkjPr0BY
OH5VJ3X5fMPxOWOUC6d+wSZufwmVNUvMngnPJKbTqGE1bA0om4mhdvOmxxARon6Q
j6svo5h0O9rVpgjV3dYYklGdehMU+0E5CopNtmd1R/J2KN6QoVzmFfxBRBbVwq/B
NeUuUloenvIeJ47q8BFoeQRju2BE7pc+u07QLrYudI8m7xRtqoqF7YTGAy4hij0r
vg1vmO1Pax24TBH4/YouD6ONAhd+IQM+KrEvn/K8f6v0gBqUORQb/kbIWhufJ00O
T9vu7S+MLD4LJOBedWl6R1O+v9UzP3HRWBGNPmu2LvQcJ/TmlwLuICx+AHAqRsxY
buUInRns3J3xDrpT9KDR5wtNxPCAZ5j0WJHXwL7zUg==
-----END CERTIFICATE-----
