Certificate:
    Data:
        Version: 3 (0x2)
        Serial Number: 6 (0x6)
        Signature Algorithm: sha256WithRSAEncryption
        Issuer: C=KG, ST=NA, L=BISHKEK, O=OpenVPN-TEST/emailAddress=me@myhost.mydomain
        Validity
            Not Before: Nov 16 13:14:59 2023 GMT
            Not After : Nov 13 13:14:59 2033 GMT
        Subject: C=KG, ST=NA, O=OpenVPN-TEST, CN=Test-Server-EC/emailAddress=me@myhost.mydomain
        Subject Public Key Info:
            Public Key Algorithm: id-ecPublicKey
                Public-Key: (256 bit)
                pub:
                    04:ae:96:54:7c:49:5e:bd:e5:d1:fd:c8:70:b1:69:
                    d9:6d:d8:7f:f8:9d:06:20:2e:69:b3:e6:02:97:2b:
                    13:c1:33:a6:11:bc:f2:b2:eb:17:06:70:54:c2:8f:
                    07:bd:d5:a8:e8:21:bd:1a:97:6f:90:a1:ca:51:31:
                    00:b3:bc:89:54
                ASN1 OID: secp256k1
        X509v3 extensions:
            X509v3 Basic Constraints: 
                CA:FALSE
            Netscape Cert Type: 
                SSL Server
            Netscape Comment: 
                OpenSSL Generated Server Certificate
            X509v3 Subject Key Identifier: 
                CB:51:62:53:FD:A8:04:F4:23:D3:C5:56:AA:45:C4:63:30:BD:DA:FF
            X509v3 Authority Key Identifier: 
                keyid:ED:C4:E0:C9:84:CA:A1:F9:53:0D:AF:69:BF:0F:67:37:DF:CE:CA:0A
                DirName:/C=KG/ST=NA/L=BISHKEK/O=OpenVPN-TEST/emailAddress=me@myhost.mydomain
                serial:5A:D2:BD:72:62:21:ED:67:C3:43:46:B0:70:2E:C3:30:4F:6B:1C:64
            X509v3 Extended Key Usage: 
                TLS Web Server Authentication
            X509v3 Key Usage: 
                Digital Signature, Key Encipherment
    Signature Algorithm: sha256WithRSAEncryption
    Signature Value:
        2f:de:87:bf:b1:65:b2:2e:fe:e4:8c:99:c0:4c:dd:93:d9:4f:
        22:88:11:ea:5e:86:f3:68:6c:39:4a:c4:e2:4f:6d:7c:32:ea:
        2b:ea:ee:a2:b3:99:07:c4:70:69:10:25:7a:ce:e1:77:6c:c8:
        ab:c7:6c:fb:4b:a1:13:72:fd:2a:62:cf:e7:d4:7b:ce:e4:41:
        59:e0:e3:08:ce:78:21:2e:ec:60:83:ad:d8:d8:50:eb:7e:dd:
        8d:69:8d:0d:19:0b:d5:4e:f9:09:18:95:c6:ac:db:62:54:b2:
        9f:a8:ea:52:b9:b3:3e:bd:37:d4:ad:57:8c:51:00:57:39:82:
        b5:59:ea:df:d8:e6:e5:dc:b6:89:f8:29:e8:1b:7f:58:e9:7f:
        ae:e1:71:cf:26:aa:b5:5e:4b:52:9e:c2:05:29:71:b3:0a:0e:
        21:f0:ee:f4:d9:73:c6:dc:d0:df:6b:d3:b9:ff:33:3f:c2:96:
        6a:8a:30:4c:1c:9c:8c:7f:a4:5d:9e:77:eb:41:f2:0f:be:e8:
        90:8b:36:05:17:db:cc:50:b4:52:09:3d:40:33:83:4d:7e:ec:
        77:b0:43:5e:a2:df:2a:91:f2:4c:4f:e9:17:17:bc:78:17:81:
        a2:ec:5a:78:71:54:23:bd:32:7d:b9:be:08:00:c3:86:01:d6:
        d9:4f:b9:76:71:77:94:f3:9f:26:91:8d:ee:aa:4f:ea:82:6c:
        6d:61:73:63:68:96:61:a4:bf:21:a9:89:99:0b:3c:6a:29:fd:
        6d:f8:1b:77:de:16:ed:65:17:ec:90:f7:47:53:15:cc:0e:3f:
        81:35:17:04:9e:13:e1:9f:72:95:1a:31:5d:a1:58:b0:ad:27:
        ce:66:84:e2:49:58:76:49:c8:81:33:8c:af:0e:61:fb:3a:6f:
        e1:2a:2e:6c:1c:8c:ff:de:7b:5b:76:38:f7:a7:a5:c2:ea:b9:
        a6:21:31:d9:ad:7c:84:2a:30:aa:d8:43:3a:04:40:8f:60:77:
        61:93:62:b0:55:38:45:08:b1:bf:73:be:c8:62:b9:f1:fe:d8:
        47:1a:e1:90:b1:95:fd:06:8d:ae:e4:74:ea:ad:99:eb:4c:ea:
        c7:86:56:ad:b1:6d:d0:cb:93:9a:50:b4:8d:33:a4:7b:f5:c9:
        c8:3c:4c:78:50:d1:f9:89:54:6e:ff:16:98:ed:32:b7:9f:05:
        22:14:ec:dc:8f:78:0c:d0:df:8f:e4:5f:16:d1:fe:00:f5:1d:
        23:6a:70:9a:d4:89:6a:c6:dc:d7:1b:8a:ad:52:7a:38:38:24:
        43:a7:d8:60:39:0d:1d:87:bb:48:09:7a:46:29:c8:8e:15:65:
        2f:96:89:79:b9:f3:34:6a
-----BEGIN CERTIFICATE-----
MIIEwDCCAqigAwIBAgIBBjANBgkqhkiG9w0BAQsFADBmMQswCQYDVQQGEwJLRzEL
MAkGA1UECAwCTkExEDAOBgNVBAcMB0JJU0hLRUsxFTATBgNVBAoMDE9wZW5WUE4t
VEVTVDEhMB8GCSqGSIb3DQEJARYSbWVAbXlob3N0Lm15ZG9tYWluMB4XDTIzMTEx
NjEzMTQ1OVoXDTMzMTExMzEzMTQ1OVowbTELMAkGA1UEBhMCS0cxCzAJBgNVBAgM
Ak5BMRUwEwYDVQQKDAxPcGVuVlBOLVRFU1QxFzAVBgNVBAMMDlRlc3QtU2VydmVy
LUVDMSEwHwYJKoZIhvcNAQkBFhJtZUBteWhvc3QubXlkb21haW4wVjAQBgcqhkjO
PQIBBgUrgQQACgNCAASullR8SV695dH9yHCxadlt2H/4nQYgLmmz5gKXKxPBM6YR
vPKy6xcGcFTCjwe91ajoIb0al2+QocpRMQCzvIlUo4IBPjCCATowCQYDVR0TBAIw
ADARBglghkgBhvhCAQEEBAMCBkAwMwYJYIZIAYb4QgENBCYWJE9wZW5TU0wgR2Vu
ZXJhdGVkIFNlcnZlciBDZXJ0aWZpY2F0ZTAdBgNVHQ4EFgQUy1FiU/2oBPQj08VW
qkXEYzC92v8wgaMGA1UdIwSBmzCBmIAU7cTgyYTKoflTDa9pvw9nN9/OygqhaqRo
MGYxCzAJBgNVBAYTAktHMQswCQYDVQQIDAJOQTEQMA4GA1UEBwwHQklTSEtFSzEV
MBMGA1UECgwMT3BlblZQTi1URVNUMSEwHwYJKoZIhvcNAQkBFhJtZUBteWhvc3Qu
bXlkb21haW6CFFrSvXJiIe1nw0NGsHAuwzBPaxxkMBMGA1UdJQQMMAoGCCsGAQUF
BwMBMAsGA1UdDwQEAwIFoDANBgkqhkiG9w0BAQsFAAOCAgEAL96Hv7Flsi7+5IyZ
wEzdk9lPIogR6l6G82hsOUrE4k9tfDLqK+ruorOZB8RwaRAles7hd2zIq8ds+0uh
E3L9KmLP59R7zuRBWeDjCM54IS7sYIOt2NhQ637djWmNDRkL1U75CRiVxqzbYlSy
n6jqUrmzPr031K1XjFEAVzmCtVnq39jm5dy2ifgp6Bt/WOl/ruFxzyaqtV5LUp7C
BSlxswoOIfDu9NlzxtzQ32vTuf8zP8KWaoowTBycjH+kXZ5360HyD77okIs2BRfb
zFC0Ugk9QDODTX7sd7BDXqLfKpHyTE/pFxe8eBeBouxaeHFUI70yfbm+CADDhgHW
2U+5dnF3lPOfJpGN7qpP6oJsbWFzY2iWYaS/IamJmQs8ain9bfgbd94W7WUX7JD3
R1MVzA4/gTUXBJ4T4Z9ylRoxXaFYsK0nzmaE4klYdknIgTOMrw5h+zpv4SoubByM
/957W3Y496elwuq5piEx2a18hCowqthDOgRAj2B3YZNisFU4RQixv3O+yGK58f7Y
RxrhkLGV/QaNruR06q2Z60zqx4ZWrbFt0MuTmlC0jTOke/XJyDxMeFDR+YlUbv8W
mO0yt58FIhTs3I94DNDfj+RfFtH+APUdI2pwmtSJasbc1xuKrVJ6ODgkQ6fYYDkN
HYe7SAl6RinIjhVlL5aJebnzNGo=
-----END CERTIFICATE-----
